target datalayout = "e-m:e-p270:32:32-p271:32:32-p272:64:64-i64:64-i128:128-f80:128-n8:16:32:64-S128"
target triple = "x86_64-pc-linux-gnu"

%struct.H5EA_hdr_t = type { %struct.H5C_cache_entry_t, %struct.H5EA_create_t, i64, %struct.H5EA_stat_t, %struct.anon.1, i64, i64, i64, ptr, i64, i8, i64, i64, i8, i64, ptr, i64, ptr, i8, ptr, ptr }
%struct.H5C_cache_entry_t = type { ptr, i64, i64, ptr, i8, ptr, i8, i8, i8, i8, i32, i8, i8, i8, i8, i8, i32, ptr, i32, i32, i32, i32, i32, i8, i8, ptr, ptr, ptr, ptr, ptr, ptr, i8, i32, i8, i64, ptr, i64, i64, i32, i8, i32, i32, i8, ptr, ptr, ptr }
%struct.H5EA_create_t = type { ptr, i8, i8, i8, i8, i8, i8 }
%struct.H5EA_stat_t = type { %struct.anon, %struct.anon.0 }
%struct.anon = type { i64, i64, i64 }
%struct.anon.0 = type { i64, i64, i64, i64, i64, i64 }
%struct.anon.1 = type { i64, ptr }

@.str = private unnamed_addr constant [101 x i8] c"generated/home/dtcxzyw/WorkSpace/Projects/compilers/llvm-opt-benchmark/bench/hdf5/hdf5/src/H5EAhdr.c\00", align 1
@H5E_EARRAY_g = external global i64, align 8
@__func__.H5EA__hdr_decr = private unnamed_addr constant [15 x i8] c"H5EA__hdr_decr\00", align 1
@H5E_CANTUNPIN_g = external global i64, align 8
@.str.16 = private unnamed_addr constant [40 x i8] c"unable to unpin extensible array header\00", align 1

; Function Attrs: nounwind uwtable
define i32 @H5EA__hdr_decr(ptr noundef %0) #0 {
  %2 = alloca ptr, align 8
  %3 = alloca i32, align 4
  %4 = alloca i8, align 1
  store ptr %0, ptr %2, align 8
  store i32 0, ptr %3, align 4
  store i8 0, ptr %4, align 1
  %5 = load ptr, ptr %2, align 8
  %6 = getelementptr inbounds %struct.H5EA_hdr_t, ptr %5, i32 0, i32 5
  %7 = load i64, ptr %6, align 8
  %8 = add i64 %7, -1
  store i64 %8, ptr %6, align 8
  %9 = load ptr, ptr %2, align 8
  %10 = getelementptr inbounds %struct.H5EA_hdr_t, ptr %9, i32 0, i32 5
  %11 = load i64, ptr %10, align 8
  %12 = icmp eq i64 %11, 0
  br i1 %12, label %13, label %33

13:                                               ; preds = %1
  %14 = load ptr, ptr %2, align 8
  %15 = call i32 @H5AC_unpin_entry(ptr noundef %14)
  %16 = icmp slt i32 %15, 0
  br i1 %16, label %17, label %32

17:                                               ; preds = %13
  br label %18

18:                                               ; preds = %17
  br label %19

19:                                               ; preds = %18
  br label %20

20:                                               ; preds = %19
  %21 = load i64, ptr @H5E_EARRAY_g, align 8
  %22 = load i64, ptr @H5E_CANTUNPIN_g, align 8
  %23 = call i32 (ptr, ptr, i32, i64, i64, ptr, ...) @H5E_printf_stack(ptr noundef @.str, ptr noundef @__func__.H5EA__hdr_decr, i32 noundef 511, i64 noundef %21, i64 noundef %22, ptr noundef @.str.16)
  br label %24

24:                                               ; preds = %20
  store i8 1, ptr %4, align 1
  %25 = load i8, ptr %4, align 1
  %26 = trunc i8 %25 to i1
  %27 = zext i1 %26 to i8
  store i8 %27, ptr %4, align 1
  br label %28

28:                                               ; preds = %24
  br label %29

29:                                               ; preds = %28
  store i32 -1, ptr %3, align 4
  br label %34

30:                                               ; No predecessors!
  br label %31

31:                                               ; preds = %30
  br label %32

32:                                               ; preds = %31, %13
  br label %33

33:                                               ; preds = %32, %1
  br label %34

34:                                               ; preds = %33, %29
  %35 = load i32, ptr %3, align 4
  ret i32 %35
}